(dp0
S'circumference'
p1
F628.3185307180106
sS'turns_max'
p2
I600
sS'turn'
p3
I8
sS'lostbunch_file'
p4
S'input/lostbunch'
p5
sS'mainbunch_file'
p6
S'input/mainbunch'
p7
sS'turns_update'
p8
(lp9
I-1
aI1
aI2
aI3
aI4
aI5
aI6
aI7
aI8
aI10
aI20
aI30
aI40
aI50
aI60
aI70
aI80
aI90
aI199
aI399
aI599
aI874
aI2185
asS'turns_print'
p10
(lp11
I-1
aI1
aI2
aI3
aI4
aI5
aI6
aI7
aI8
aI10
aI20
aI30
aI40
aI50
aI60
aI70
aI80
aI90
aI199
aI399
aI599
aI874
aI2185
as.